; Function Attrs: nounwind uwtable
define internal fastcc void @attach_phase_attrs(ptr noundef %0, i32 noundef range(i32 1, 3) %1) unnamed_addr #0 {
  %3 = alloca %struct.agxbuf, align 8
  %4 = tail call ptr @agattr(ptr noundef %0, i32 noundef 1, ptr noundef nonnull @.str.11, ptr noundef nonnull @.str.4) #15
  %5 = tail call ptr @agattr(ptr noundef %0, i32 noundef 1, ptr noundef nonnull @.str.12, ptr noundef nonnull @.str.4) #15
  call void @llvm.lifetime.start.p0(i64 32, ptr nonnull %3) #15
  call void @llvm.memset.p0.i64(ptr noundef nonnull align 8 dereferenceable(32) %3, i8 0, i64 32, i1 false)
  %6 = tail call ptr @agfstnode(ptr noundef %0) #15
  %.not29 = icmp eq ptr %6, null
  br i1 %.not29, label %agxbfree.exit, label %.lr.ph

.lr.ph:                                           ; preds = %2
  %7 = getelementptr inbounds nuw i8, ptr %3, i64 31
  %8 = getelementptr inbounds nuw i8, ptr %3, i64 8
  %9 = getelementptr inbounds nuw i8, ptr %3, i64 16
  %10 = icmp samesign ugt i32 %1, 1
  br label %11

11:                                               ; preds = %.lr.ph, %62
  %.030 = phi ptr [ %6, %.lr.ph ], [ %63, %62 ]
  %12 = getelementptr inbounds nuw i8, ptr %.030, i64 16
  %13 = load ptr, ptr %12, align 8, !tbaa !3
  %14 = getelementptr inbounds nuw i8, ptr %13, i64 360
  %15 = load i32, ptr %14, align 8, !tbaa !140
  call void (ptr, ptr, ...) @agxbprint(ptr noundef %3, ptr nonnull poison, i32 noundef %15)
  %.val.i = load i8, ptr %7, align 1, !tbaa !67
  switch i8 %.val.i, label %agxblen.exit.i.i [
    i8 -1, label %17
    i8 31, label %agxbclear.exit.thread.i
  ]

agxblen.exit.i.i:                                 ; preds = %11
  %16 = zext i8 %.val.i to i64
  br label %agxbsizeof.exit.i.i

17:                                               ; preds = %11
  %18 = load i64, ptr %8, align 8, !tbaa !67
  %19 = load i64, ptr %9, align 8, !tbaa !67
  br label %agxbsizeof.exit.i.i

agxbsizeof.exit.i.i:                              ; preds = %17, %agxblen.exit.i.i
  %.0.i20.i.i = phi i64 [ %18, %17 ], [ %16, %agxblen.exit.i.i ]
  %.0.i14.i.i = phi i64 [ %19, %17 ], [ 31, %agxblen.exit.i.i ]
  %.not.i5.i = icmp ult i64 %.0.i20.i.i, %.0.i14.i.i
  br i1 %.not.i5.i, label %21, label %20

20:                                               ; preds = %agxbsizeof.exit.i.i
  call fastcc void @agxbmore(ptr noundef nonnull %3, i64 noundef 1)
  %.val.i15.pre.i.i = load i8, ptr %7, align 1, !tbaa !67
  br label %21

21:                                               ; preds = %20, %agxbsizeof.exit.i.i
  %.val.i15.i.i = phi i8 [ %.val.i15.pre.i.i, %20 ], [ %.val.i, %agxbsizeof.exit.i.i ]
  %.not.i16.i.i = icmp eq i8 %.val.i15.i.i, -1
  br i1 %.not.i16.i.i, label %27, label %22

22:                                               ; preds = %21
  %23 = zext i8 %.val.i15.i.i to i64
  %24 = getelementptr inbounds nuw [31 x i8], ptr %3, i64 0, i64 %23
  store i8 0, ptr %24, align 1, !tbaa !67
  %25 = load i8, ptr %7, align 1, !tbaa !67
  %26 = add i8 %25, 1
  store i8 %26, ptr %7, align 1, !tbaa !67
  br label %agxbputc.exit.i

27:                                               ; preds = %21
  %28 = load i64, ptr %8, align 8, !tbaa !67
  %29 = load ptr, ptr %3, align 8, !tbaa !67
  %30 = getelementptr inbounds nuw i8, ptr %29, i64 %28
  store i8 0, ptr %30, align 1, !tbaa !67
  %31 = load i64, ptr %8, align 8, !tbaa !67
  %32 = add i64 %31, 1
  store i64 %32, ptr %8, align 8, !tbaa !67
  %.val.i6.pr.i = load i8, ptr %7, align 1, !tbaa !67
  br label %agxbputc.exit.i

agxbputc.exit.i:                                  ; preds = %27, %22
  %.val.i8.pr.i = phi i8 [ %.val.i6.pr.i, %27 ], [ %26, %22 ]
  %.not.i7.i = icmp eq i8 %.val.i8.pr.i, -1
  br i1 %.not.i7.i, label %33, label %agxbclear.exit.thread.i

agxbclear.exit.thread.i:                          ; preds = %agxbputc.exit.i, %11
  store i8 0, ptr %7, align 1, !tbaa !67
  br label %agxbuse.exit

33:                                               ; preds = %agxbputc.exit.i
  store i64 0, ptr %8, align 8, !tbaa !67
  %34 = load ptr, ptr %3, align 8, !tbaa !67
  br label %agxbuse.exit

agxbuse.exit:                                     ; preds = %agxbclear.exit.thread.i, %33
  %35 = phi ptr [ %34, %33 ], [ %3, %agxbclear.exit.thread.i ]
  %36 = call i32 @agxset(ptr noundef nonnull %.030, ptr noundef %4, ptr noundef %35) #15
  br i1 %10, label %37, label %62

37:                                               ; preds = %agxbuse.exit
  %38 = load ptr, ptr %12, align 8, !tbaa !3
  %39 = getelementptr inbounds nuw i8, ptr %38, i64 364
  %40 = load i32, ptr %39, align 4, !tbaa !148
  call void (ptr, ptr, ...) @agxbprint(ptr noundef %3, ptr nonnull poison, i32 noundef %40)
  %.val.i14 = load i8, ptr %7, align 1, !tbaa !67
  switch i8 %.val.i14, label %agxblen.exit.i.i27 [
    i8 -1, label %42
    i8 31, label %agxbclear.exit.thread.i15
  ]

agxblen.exit.i.i27:                               ; preds = %37
  %41 = zext i8 %.val.i14 to i64
  br label %agxbsizeof.exit.i.i16

42:                                               ; preds = %37
  %43 = load i64, ptr %8, align 8, !tbaa !67
  %44 = load i64, ptr %9, align 8, !tbaa !67
  br label %agxbsizeof.exit.i.i16

agxbsizeof.exit.i.i16:                            ; preds = %42, %agxblen.exit.i.i27
  %.0.i20.i.i17 = phi i64 [ %43, %42 ], [ %41, %agxblen.exit.i.i27 ]
  %.0.i14.i.i18 = phi i64 [ %44, %42 ], [ 31, %agxblen.exit.i.i27 ]
  %.not.i5.i19 = icmp ult i64 %.0.i20.i.i17, %.0.i14.i.i18
  br i1 %.not.i5.i19, label %46, label %45

45:                                               ; preds = %agxbsizeof.exit.i.i16
  call fastcc void @agxbmore(ptr noundef nonnull %3, i64 noundef 1)
  %.val.i15.pre.i.i20 = load i8, ptr %7, align 1, !tbaa !67
  br label %46

46:                                               ; preds = %45, %agxbsizeof.exit.i.i16
  %.val.i15.i.i21 = phi i8 [ %.val.i15.pre.i.i20, %45 ], [ %.val.i14, %agxbsizeof.exit.i.i16 ]
  %.not.i16.i.i22 = icmp eq i8 %.val.i15.i.i21, -1
  br i1 %.not.i16.i.i22, label %52, label %47

47:                                               ; preds = %46
  %48 = zext i8 %.val.i15.i.i21 to i64
  %49 = getelementptr inbounds nuw [31 x i8], ptr %3, i64 0, i64 %48
  store i8 0, ptr %49, align 1, !tbaa !67
  %50 = load i8, ptr %7, align 1, !tbaa !67
  %51 = add i8 %50, 1
  store i8 %51, ptr %7, align 1, !tbaa !67
  br label %agxbputc.exit.i23

52:                                               ; preds = %46
  %53 = load i64, ptr %8, align 8, !tbaa !67
  %54 = load ptr, ptr %3, align 8, !tbaa !67
  %55 = getelementptr inbounds nuw i8, ptr %54, i64 %53
  store i8 0, ptr %55, align 1, !tbaa !67
  %56 = load i64, ptr %8, align 8, !tbaa !67
  %57 = add i64 %56, 1
  store i64 %57, ptr %8, align 8, !tbaa !67
  %.val.i6.pr.i26 = load i8, ptr %7, align 1, !tbaa !67
  br label %agxbputc.exit.i23

agxbputc.exit.i23:                                ; preds = %52, %47
  %.val.i8.pr.i24 = phi i8 [ %.val.i6.pr.i26, %52 ], [ %51, %47 ]
  %.not.i7.i25 = icmp eq i8 %.val.i8.pr.i24, -1
  br i1 %.not.i7.i25, label %58, label %agxbclear.exit.thread.i15

agxbclear.exit.thread.i15:                        ; preds = %agxbputc.exit.i23, %37
  store i8 0, ptr %7, align 1, !tbaa !67
  br label %agxbuse.exit28

58:                                               ; preds = %agxbputc.exit.i23
  store i64 0, ptr %8, align 8, !tbaa !67
  %59 = load ptr, ptr %3, align 8, !tbaa !67
  br label %agxbuse.exit28

agxbuse.exit28:                                   ; preds = %agxbclear.exit.thread.i15, %58
  %60 = phi ptr [ %59, %58 ], [ %3, %agxbclear.exit.thread.i15 ]
  %61 = call i32 @agxset(ptr noundef nonnull %.030, ptr noundef %5, ptr noundef %60) #15
  br label %62

62:                                               ; preds = %agxbuse.exit, %agxbuse.exit28
  %63 = call ptr @agnxtnode(ptr noundef %0, ptr noundef nonnull %.030) #15
  %.not = icmp eq ptr %63, null
  br i1 %.not, label %._crit_edge, label %11, !llvm.loop !149

._crit_edge:                                      ; preds = %62
  %.val13.pre = load i8, ptr %7, align 1, !tbaa !67
  %64 = icmp eq i8 %.val13.pre, -1
  br i1 %64, label %65, label %agxbfree.exit

65:                                               ; preds = %._crit_edge
  %.val = load ptr, ptr %3, align 8
  call void @free(ptr noundef %.val) #15
  br label %agxbfree.exit

agxbfree.exit:                                    ; preds = %2, %._crit_edge, %65
  call void @llvm.lifetime.end.p0(i64 32, ptr nonnull %3) #15
  ret void
}